target datalayout = "e-m:e-p270:32:32-p271:32:32-p272:64:64-i64:64-i128:128-f80:128-n8:16:32:64-S128"
target triple = "x86_64-unknown-linux-gnu"

%"class.proxygen::huffman::HuffTree" = type { i32, ptr, ptr, [46 x %"struct.proxygen::huffman::SuperHuffNode"] }
%"struct.proxygen::huffman::SuperHuffNode" = type { [256 x %"struct.proxygen::huffman::HuffNode"] }
%"struct.proxygen::huffman::HuffNode" = type { %union.anon, %struct.anon }
%union.anon = type { i8 }
%struct.anon = type { i8 }
%"class.folly::basic_fbstring" = type { %"class.folly::fbstring_core" }
%"class.folly::fbstring_core" = type { %union.anon.0 }
%union.anon.0 = type { %"struct.folly::fbstring_core<char>::MediumLarge" }
%"struct.folly::fbstring_core<char>::MediumLarge" = type { ptr, i64, i64 }

; Function Attrs: mustprogress uwtable
define linkonce_odr void @_ZN5folly13fbstring_coreIcE9push_backEc(ptr noundef nonnull align 8 dereferenceable(24) %this, i8 noundef signext %c) #0 comdat align 2 {
entry:
  %this.addr = alloca ptr, align 8
  %c.addr = alloca i8, align 1
  store ptr %this, ptr %this.addr, align 8
  store i8 %c, ptr %c.addr, align 1
  %this1 = load ptr, ptr %this.addr, align 8
  %0 = load i8, ptr %c.addr, align 1
  %call = call noundef ptr @_ZN5folly13fbstring_coreIcE12expandNoinitEmbb(ptr noundef nonnull align 8 dereferenceable(24) %this1, i64 noundef 1, i1 noundef zeroext true, i1 noundef zeroext false)
  store i8 %0, ptr %call, align 1
  ret void
}

; Function Attrs: mustprogress uwtable
define linkonce_odr void @_ZN5folly14basic_fbstringIcSt11char_traitsIcESaIcENS_13fbstring_coreIcEEE9push_backEc(ptr noundef nonnull align 8 dereferenceable(24) %this, i8 noundef signext %c) #0 comdat align 2 {
entry:
  %this.addr = alloca ptr, align 8
  %c.addr = alloca i8, align 1
  store ptr %this, ptr %this.addr, align 8
  store i8 %c, ptr %c.addr, align 1
  %this1 = load ptr, ptr %this.addr, align 8
  %store_ = getelementptr inbounds %"class.folly::basic_fbstring", ptr %this1, i32 0, i32 0
  %0 = load i8, ptr %c.addr, align 1
  call void @_ZN5folly13fbstring_coreIcE9push_backEc(ptr noundef nonnull align 8 dereferenceable(24) %store_, i8 noundef signext %0)
  ret void
}

; Function Attrs: mustprogress nounwind uwtable
define linkonce_odr noundef zeroext i1 @_ZNK8proxygen7huffman8HuffNode6isLeafEv(ptr noundef nonnull align 1 dereferenceable(2) %this) #1 comdat align 2 {
entry:
  %this.addr = alloca ptr, align 8
  store ptr %this, ptr %this.addr, align 8
  %this1 = load ptr, ptr %this.addr, align 8
  %metadata = getelementptr inbounds %"struct.proxygen::huffman::HuffNode", ptr %this1, i32 0, i32 1
  %bf.load = load i8, ptr %metadata, align 1
  %bf.lshr = lshr i8 %bf.load, 4
  %bf.clear = and i8 %bf.lshr, 1
  %bf.cast = trunc i8 %bf.clear to i1
  %lnot = xor i1 %bf.cast, true
  ret i1 %lnot
}

; Function Attrs: mustprogress uwtable
define noundef zeroext i1 @_ZNK8proxygen7huffman8HuffTree6decodeEPKhjRN5folly14basic_fbstringIcSt11char_traitsIcESaIcENS4_13fbstring_coreIcEEEE(ptr noundef nonnull align 8 dereferenceable(23576) %this, ptr noundef %buf, i32 noundef %size, ptr noundef nonnull align 8 dereferenceable(24) %literal) #0 align 2 {
entry:
  %this.addr = alloca ptr, align 8
  %buf.addr = alloca ptr, align 8
  %size.addr = alloca i32, align 4
  %literal.addr = alloca ptr, align 8
  %snode = alloca ptr, align 8
  %w = alloca i32, align 4
  %wbits = alloca i32, align 4
  %i = alloca i32, align 4
  %key = alloca i32, align 4
  %xbits = alloca i8, align 1
  %node = alloca ptr, align 8
  store ptr %this, ptr %this.addr, align 8
  store ptr %buf, ptr %buf.addr, align 8
  store i32 %size, ptr %size.addr, align 4
  store ptr %literal, ptr %literal.addr, align 8
  %this1 = load ptr, ptr %this.addr, align 8
  %table_ = getelementptr inbounds %"class.proxygen::huffman::HuffTree", ptr %this1, i32 0, i32 3
  %arrayidx = getelementptr inbounds [46 x %"struct.proxygen::huffman::SuperHuffNode"], ptr %table_, i64 0, i64 0
  store ptr %arrayidx, ptr %snode, align 8
  store i32 0, ptr %w, align 4
  store i32 0, ptr %wbits, align 4
  store i32 0, ptr %i, align 4
  br label %while.cond

while.cond:                                       ; preds = %if.end30, %entry
  %0 = load i32, ptr %i, align 4
  %1 = load i32, ptr %size.addr, align 4
  %cmp = icmp ult i32 %0, %1
  br i1 %cmp, label %lor.end, label %lor.rhs

lor.rhs:                                          ; preds = %while.cond
  %2 = load i32, ptr %wbits, align 4
  %cmp2 = icmp ugt i32 %2, 0
  br label %lor.end

lor.end:                                          ; preds = %lor.rhs, %while.cond
  %3 = phi i1 [ true, %while.cond ], [ %cmp2, %lor.rhs ]
  br i1 %3, label %while.body, label %while.end

while.body:                                       ; preds = %lor.end
  %4 = load i32, ptr %i, align 4
  %5 = load i32, ptr %size.addr, align 4
  %cmp3 = icmp ult i32 %4, %5
  br i1 %cmp3, label %land.lhs.true, label %if.end

land.lhs.true:                                    ; preds = %while.body
  %6 = load i32, ptr %wbits, align 4
  %cmp4 = icmp ult i32 %6, 8
  br i1 %cmp4, label %if.then, label %if.end

if.then:                                          ; preds = %land.lhs.true
  %7 = load i32, ptr %w, align 4
  %shl = shl i32 %7, 8
  %8 = load ptr, ptr %buf.addr, align 8
  %9 = load i32, ptr %i, align 4
  %idxprom = zext i32 %9 to i64
  %arrayidx5 = getelementptr inbounds i8, ptr %8, i64 %idxprom
  %10 = load i8, ptr %arrayidx5, align 1
  %conv = zext i8 %10 to i32
  %or = or i32 %shl, %conv
  store i32 %or, ptr %w, align 4
  %11 = load i32, ptr %wbits, align 4
  %add = add i32 %11, 8
  store i32 %add, ptr %wbits, align 4
  %12 = load i32, ptr %i, align 4
  %inc = add i32 %12, 1
  store i32 %inc, ptr %i, align 4
  br label %if.end

if.end:                                           ; preds = %if.then, %land.lhs.true, %while.body
  %13 = load i32, ptr %wbits, align 4
  %cmp6 = icmp uge i32 %13, 8
  br i1 %cmp6, label %if.then7, label %if.else

if.then7:                                         ; preds = %if.end
  %14 = load i32, ptr %w, align 4
  %15 = load i32, ptr %wbits, align 4
  %sub = sub i32 %15, 8
  %shr = lshr i32 %14, %sub
  store i32 %shr, ptr %key, align 4
  br label %if.end16

if.else:                                          ; preds = %if.end
  %16 = load i32, ptr %wbits, align 4
  %sub8 = sub i32 8, %16
  %conv9 = trunc i32 %sub8 to i8
  store i8 %conv9, ptr %xbits, align 1
  %17 = load i32, ptr %w, align 4
  %18 = load i8, ptr %xbits, align 1
  %conv10 = zext i8 %18 to i32
  %shl11 = shl i32 %17, %conv10
  %19 = load i8, ptr %xbits, align 1
  %conv12 = zext i8 %19 to i32
  %shl13 = shl i32 1, %conv12
  %sub14 = sub nsw i32 %shl13, 1
  %or15 = or i32 %shl11, %sub14
  store i32 %or15, ptr %w, align 4
  %20 = load i32, ptr %w, align 4
  store i32 %20, ptr %key, align 4
  store i32 8, ptr %wbits, align 4
  br label %if.end16

if.end16:                                         ; preds = %if.else, %if.then7
  %21 = load ptr, ptr %snode, align 8
  %index = getelementptr inbounds %"struct.proxygen::huffman::SuperHuffNode", ptr %21, i32 0, i32 0
  %22 = load i32, ptr %key, align 4
  %idxprom17 = zext i32 %22 to i64
  %arrayidx18 = getelementptr inbounds [256 x %"struct.proxygen::huffman::HuffNode"], ptr %index, i64 0, i64 %idxprom17
  store ptr %arrayidx18, ptr %node, align 8
  %23 = load ptr, ptr %node, align 8
  %call = call noundef zeroext i1 @_ZNK8proxygen7huffman8HuffNode6isLeafEv(ptr noundef nonnull align 1 dereferenceable(2) %23)
  br i1 %call, label %if.then19, label %if.else24

if.then19:                                        ; preds = %if.end16
  %24 = load ptr, ptr %literal.addr, align 8
  %25 = load ptr, ptr %node, align 8
  %data = getelementptr inbounds %"struct.proxygen::huffman::HuffNode", ptr %25, i32 0, i32 0
  %26 = load i8, ptr %data, align 1
  call void @_ZN5folly14basic_fbstringIcSt11char_traitsIcESaIcENS_13fbstring_coreIcEEE9push_backEc(ptr noundef nonnull align 8 dereferenceable(24) %24, i8 noundef signext %26)
  %27 = load ptr, ptr %node, align 8
  %metadata = getelementptr inbounds %"struct.proxygen::huffman::HuffNode", ptr %27, i32 0, i32 1
  %bf.load = load i8, ptr %metadata, align 1
  %bf.clear = and i8 %bf.load, 15
  %conv20 = zext i8 %bf.clear to i32
  %28 = load i32, ptr %wbits, align 4
  %sub21 = sub i32 %28, %conv20
  store i32 %sub21, ptr %wbits, align 4
  %table_22 = getelementptr inbounds %"class.proxygen::huffman::HuffTree", ptr %this1, i32 0, i32 3
  %arrayidx23 = getelementptr inbounds [46 x %"struct.proxygen::huffman::SuperHuffNode"], ptr %table_22, i64 0, i64 0
  store ptr %arrayidx23, ptr %snode, align 8
  br label %if.end30

if.else24:                                        ; preds = %if.end16
  %29 = load i32, ptr %wbits, align 4
  %sub25 = sub i32 %29, 8
  store i32 %sub25, ptr %wbits, align 4
  %table_26 = getelementptr inbounds %"class.proxygen::huffman::HuffTree", ptr %this1, i32 0, i32 3
  %30 = load ptr, ptr %node, align 8
  %data27 = getelementptr inbounds %"struct.proxygen::huffman::HuffNode", ptr %30, i32 0, i32 0
  %31 = load i8, ptr %data27, align 1
  %idxprom28 = zext i8 %31 to i64
  %arrayidx29 = getelementptr inbounds [46 x %"struct.proxygen::huffman::SuperHuffNode"], ptr %table_26, i64 0, i64 %idxprom28
  store ptr %arrayidx29, ptr %snode, align 8
  br label %if.end30

if.end30:                                         ; preds = %if.else24, %if.then19
  %32 = load i32, ptr %w, align 4
  %33 = load i32, ptr %wbits, align 4
  %shl31 = shl i32 1, %33
  %sub32 = sub nsw i32 %shl31, 1
  %and = and i32 %32, %sub32
  store i32 %and, ptr %w, align 4
  br label %while.cond, !llvm.loop !6

while.end:                                        ; preds = %lor.end
  ret i1 true
}