; Function Attrs: mustprogress uwtable
define noundef zeroext i1 @_ZNK8proxygen7huffman8HuffTree6decodeEPKhjRN5folly14basic_fbstringIcSt11char_traitsIcESaIcENS4_13fbstring_coreIcEEEE(ptr nocapture noundef nonnull readonly align 8 dereferenceable(23576) %this, ptr nocapture noundef readonly %buf, i32 noundef %size, ptr noundef nonnull align 8 dereferenceable(24) %literal) local_unnamed_addr #1 align 2 {
entry:
  %table_ = getelementptr inbounds i8, ptr %this, i64 24
  %cmp30.not = icmp eq i32 %size, 0
  br i1 %cmp30.not, label %while.end, label %while.body

while.body:                                       ; preds = %entry, %if.end30
  %cmp35 = phi i1 [ %cmp, %if.end30 ], [ true, %entry ]
  %snode.034 = phi ptr [ %snode.1, %if.end30 ], [ %table_, %entry ]
  %w.033 = phi i32 [ %and, %if.end30 ], [ 0, %entry ]
  %i.032 = phi i32 [ %i.127, %if.end30 ], [ 0, %entry ]
  %wbits.031 = phi i32 [ %wbits.3, %if.end30 ], [ 0, %entry ]
  %cmp4 = icmp ult i32 %wbits.031, 8
  %or.cond = select i1 %cmp35, i1 %cmp4, i1 false
  br i1 %or.cond, label %if.end.thread, label %if.end

if.end.thread:                                    ; preds = %while.body
  %shl = shl i32 %w.033, 8
  %idxprom = zext i32 %i.032 to i64
  %arrayidx5 = getelementptr inbounds i8, ptr %buf, i64 %idxprom
  %0 = load i8, ptr %arrayidx5, align 1
  %conv = zext i8 %0 to i32
  %or = or disjoint i32 %shl, %conv
  %add = or disjoint i32 %wbits.031, 8
  %inc = add nuw i32 %i.032, 1
  br label %if.then7

if.end:                                           ; preds = %while.body
  %cmp6 = icmp ugt i32 %wbits.031, 7
  br i1 %cmp6, label %if.then7, label %if.else

if.then7:                                         ; preds = %if.end.thread, %if.end
  %w.129 = phi i32 [ %or, %if.end.thread ], [ %w.033, %if.end ]
  %i.128 = phi i32 [ %inc, %if.end.thread ], [ %i.032, %if.end ]
  %wbits.126 = phi i32 [ %add, %if.end.thread ], [ %wbits.031, %if.end ]
  %sub = add i32 %wbits.126, -8
  %shr = lshr i32 %w.129, %sub
  br label %if.end16

if.else:                                          ; preds = %if.end
  %conv9 = sub nuw nsw i32 8, %wbits.031
  %shl11 = shl i32 %w.033, %conv9
  %notmask = shl nsw i32 -1, %conv9
  %sub14 = xor i32 %notmask, -1
  %or15 = or i32 %shl11, %sub14
  br label %if.end16

if.end16:                                         ; preds = %if.else, %if.then7
  %i.127 = phi i32 [ %i.128, %if.then7 ], [ %i.032, %if.else ]
  %wbits.2 = phi i32 [ %wbits.126, %if.then7 ], [ 8, %if.else ]
  %key.0 = phi i32 [ %shr, %if.then7 ], [ %or15, %if.else ]
  %w.2 = phi i32 [ %w.129, %if.then7 ], [ %or15, %if.else ]
  %idxprom17 = zext i32 %key.0 to i64
  %arrayidx18 = getelementptr inbounds [256 x %"struct.proxygen::huffman::HuffNode"], ptr %snode.034, i64 0, i64 %idxprom17
  %metadata.i = getelementptr inbounds i8, ptr %arrayidx18, i64 1
  %bf.load.i = load i8, ptr %metadata.i, align 1
  %1 = and i8 %bf.load.i, 16
  %bf.cast.not.i = icmp eq i8 %1, 0
  br i1 %bf.cast.not.i, label %if.then19, label %if.else24

if.then19:                                        ; preds = %if.end16
  %2 = load i8, ptr %arrayidx18, align 1
  %call.i.i = tail call noundef ptr @_ZN5folly13fbstring_coreIcE12expandNoinitEmbb(ptr noundef nonnull align 8 dereferenceable(24) %literal, i64 noundef 1, i1 noundef zeroext true, i1 noundef zeroext false)
  store i8 %2, ptr %call.i.i, align 1
  %bf.load = load i8, ptr %metadata.i, align 1
  %bf.clear = and i8 %bf.load, 15
  %conv20 = zext nneg i8 %bf.clear to i32
  %sub21 = sub i32 %wbits.2, %conv20
  br label %if.end30

if.else24:                                        ; preds = %if.end16
  %sub25 = add i32 %wbits.2, -8
  %3 = load i8, ptr %arrayidx18, align 1
  %idxprom28 = zext i8 %3 to i64
  %arrayidx29 = getelementptr inbounds [46 x %"struct.proxygen::huffman::SuperHuffNode"], ptr %table_, i64 0, i64 %idxprom28
  br label %if.end30

if.end30:                                         ; preds = %if.else24, %if.then19
  %wbits.3 = phi i32 [ %sub21, %if.then19 ], [ %sub25, %if.else24 ]
  %snode.1 = phi ptr [ %table_, %if.then19 ], [ %arrayidx29, %if.else24 ]
  %notmask21 = shl nsw i32 -1, %wbits.3
  %sub32 = xor i32 %notmask21, -1
  %and = and i32 %w.2, %sub32
  %cmp = icmp ult i32 %i.127, %size
  %cmp2 = icmp ne i32 %wbits.3, 0
  %4 = select i1 %cmp, i1 true, i1 %cmp2
  br i1 %4, label %while.body, label %while.end, !llvm.loop !7

while.end:                                        ; preds = %if.end30, %entry
  ret i1 true
}